; ModuleID = 'source-C-CXX/55/1378.c'
source_filename = "source-C-CXX/55/1378.c"
target datalayout = "e-m:e-p270:32:32-p271:32:32-p272:64:64-i64:64-f80:128-n8:16:32:64-S128"
target triple = "x86_64-pc-linux-gnu"

@.str = private unnamed_addr constant [3 x i8] c"%d\00", align 1

; Function Attrs: nofree nounwind sspstrong uwtable
define dso_local i32 @main() local_unnamed_addr #0 {
  %1 = alloca i32, align 4
  %2 = bitcast i32* %1 to i8*
  call void @llvm.lifetime.start.p0i8(i64 4, i8* nonnull %2) #3
  %3 = call i32 (i8*, ...) @__isoc99_scanf(i8* getelementptr inbounds ([3 x i8], [3 x i8]* @.str, i64 0, i64 0), i32* nonnull %1)
  %4 = load i32, i32* %1, align 4, !tbaa !5
  %5 = srem i32 %4, 10
  %6 = srem i32 %4, 100
  %7 = trunc i32 %6 to i8
  %8 = sdiv i8 %7, 10
  %9 = sext i8 %8 to i32
  %10 = srem i32 %4, 1000
  %11 = trunc i32 %10 to i16
  %12 = sdiv i16 %11, 100
  %13 = sext i16 %12 to i32
  %14 = srem i32 %4, 10000
  %15 = trunc i32 %14 to i16
  %16 = sdiv i16 %15, 1000
  %17 = sext i16 %16 to i32
  %18 = srem i32 %4, 100000
  %19 = sdiv i32 %18, 10000
  %20 = icmp eq i32 %5, 0
  br i1 %20, label %23, label %21

21:                                               ; preds = %0
  %22 = call i32 (i8*, ...) @printf(i8* nonnull dereferenceable(1) getelementptr inbounds ([3 x i8], [3 x i8]* @.str, i64 0, i64 0), i32 %5)
  br label %23

23:                                               ; preds = %21, %0
  %24 = add nsw i32 %6, 9
  %25 = icmp ult i32 %24, 19
  br i1 %25, label %28, label %26

26:                                               ; preds = %23
  %27 = call i32 (i8*, ...) @printf(i8* nonnull dereferenceable(1) getelementptr inbounds ([3 x i8], [3 x i8]* @.str, i64 0, i64 0), i32 %9)
  br label %28

28:                                               ; preds = %26, %23
  %29 = add nsw i32 %10, 99
  %30 = icmp ult i32 %29, 199
  br i1 %30, label %33, label %31

31:                                               ; preds = %28
  %32 = call i32 (i8*, ...) @printf(i8* nonnull dereferenceable(1) getelementptr inbounds ([3 x i8], [3 x i8]* @.str, i64 0, i64 0), i32 %13)
  br label %33

33:                                               ; preds = %31, %28
  %34 = add nsw i32 %14, 999
  %35 = icmp ult i32 %34, 1999
  br i1 %35, label %38, label %36

36:                                               ; preds = %33
  %37 = call i32 (i8*, ...) @printf(i8* nonnull dereferenceable(1) getelementptr inbounds ([3 x i8], [3 x i8]* @.str, i64 0, i64 0), i32 %17)
  br label %38

38:                                               ; preds = %36, %33
  %39 = add nsw i32 %18, 9999
  %40 = icmp ult i32 %39, 19999
  br i1 %40, label %43, label %41

41:                                               ; preds = %38
  %42 = call i32 (i8*, ...) @printf(i8* nonnull dereferenceable(1) getelementptr inbounds ([3 x i8], [3 x i8]* @.str, i64 0, i64 0), i32 %19)
  br label %43

43:                                               ; preds = %41, %38
  call void @llvm.lifetime.end.p0i8(i64 4, i8* nonnull %2) #3
  ret i32 0
}

; Function Attrs: argmemonly mustprogress nofree nosync nounwind willreturn
declare void @llvm.lifetime.start.p0i8(i64 immarg, i8* nocapture) #1

; Function Attrs: nofree nounwind
declare noundef i32 @__isoc99_scanf(i8* nocapture noundef readonly, ...) local_unnamed_addr #2

; Function Attrs: nofree nounwind
declare noundef i32 @printf(i8* nocapture noundef readonly, ...) local_unnamed_addr #2

; Function Attrs: argmemonly mustprogress nofree nosync nounwind willreturn
declare void @llvm.lifetime.end.p0i8(i64 immarg, i8* nocapture) #1


!llvm.module.flags = !{!0, !1, !2, !3}
!llvm.ident = !{!4}

!0 = !{i32 1, !"wchar_size", i32 4}
!1 = !{i32 7, !"PIC Level", i32 2}
!2 = !{i32 7, !"PIE Level", i32 2}
!3 = !{i32 7, !"uwtable", i32 1}
!4 = !{!"clang version 13.0.0"}
!5 = !{!6, !6, i64 0}
!6 = !{!"int", !7, i64 0}
!7 = !{!"omnipotent char", !8, i64 0}
!8 = !{!"Simple C/C++ TBAA"}
